; Function Attrs: nounwind uwtable
define internal fastcc ptr @decode_bytes_with_escapes(ptr noundef %0, ptr noundef %1, i64 noundef range(i64 -5, 2147483647) %2, ptr noundef %3) unnamed_addr #0 {
  %5 = alloca ptr, align 8
  call void @llvm.lifetime.start.p0(i64 8, ptr nonnull %5) #8
  %6 = call ptr @_PyBytes_DecodeEscape(ptr noundef %1, i64 noundef %2, ptr noundef null, ptr noundef nonnull %5) #8
  %7 = icmp eq ptr %6, null
  br i1 %7, label %Py_DECREF.exit, label %8

8:                                                ; preds = %4
  %9 = load ptr, ptr %5, align 8, !tbaa !33
  %.not = icmp eq ptr %9, null
  br i1 %.not, label %Py_DECREF.exit, label %10

10:                                               ; preds = %8
  %11 = call fastcc i32 @warn_invalid_escape_sequence(ptr noundef %0, ptr noundef %9, ptr noundef %3)
  %12 = icmp slt i32 %11, 0
  br i1 %12, label %13, label %Py_DECREF.exit

13:                                               ; preds = %10
  %14 = load i32, ptr %6, align 8, !tbaa !4
  %.not.i = icmp sgt i32 %14, -1
  br i1 %.not.i, label %15, label %Py_DECREF.exit

15:                                               ; preds = %13
  %16 = add nsw i32 %14, -1
  store i32 %16, ptr %6, align 8, !tbaa !4
  %17 = icmp eq i32 %16, 0
  br i1 %17, label %18, label %Py_DECREF.exit

18:                                               ; preds = %15
  call void @_Py_Dealloc(ptr noundef nonnull %6) #8
  br label %Py_DECREF.exit

Py_DECREF.exit:                                   ; preds = %18, %15, %13, %8, %10, %4
  %.0 = phi ptr [ null, %4 ], [ %6, %10 ], [ %6, %8 ], [ null, %13 ], [ null, %15 ], [ null, %18 ]
  call void @llvm.lifetime.end.p0(i64 8, ptr nonnull %5) #8
  ret ptr %.0
}